; Function Attrs: mustprogress uwtable
define noundef i32 @paramLocaleDefault(ptr readnone captures(none) %0, ptr noundef %1, i32 noundef %2, ptr noundef %3) #1 {
  %5 = tail call ptr @uloc_getDefault_77()
  %6 = load i32, ptr %3, align 4, !tbaa !13
  %7 = icmp sgt i32 %6, 0
  br i1 %7, label %12, label %8

8:                                                ; preds = %4
  %9 = icmp eq ptr %5, null
  %spec.select.i = select i1 %9, ptr @.str.74, ptr %5
  %10 = tail call i64 @strlen(ptr noundef nonnull dereferenceable(1) %spec.select.i) #29
  %11 = trunc i64 %10 to i32
  %.not22.i = icmp eq ptr %1, null
  br i1 %.not22.i, label %_ZL20stringToStringBufferPciPKcP10UErrorCode.exit, label %.sink.split.i

12:                                               ; preds = %4
  %13 = tail call ptr @u_errorName_77(i32 noundef %6)
  %14 = tail call i64 @strlen(ptr noundef nonnull dereferenceable(1) %13) #29
  %15 = trunc i64 %14 to i32
  %.not21.i = icmp eq ptr %1, null
  br i1 %.not21.i, label %_ZL20stringToStringBufferPciPKcP10UErrorCode.exit, label %.sink.split.i

.sink.split.i:                                    ; preds = %12, %8
  %.sink25.i = phi i32 [ %11, %8 ], [ %15, %12 ]
  %.sink.i = phi ptr [ %spec.select.i, %8 ], [ %13, %12 ]
  %16 = tail call i32 @uprv_min_77(i32 noundef %.sink25.i, i32 noundef %2)
  %17 = sext i32 %16 to i64
  %18 = tail call ptr @strncpy(ptr noundef nonnull %1, ptr noundef nonnull %.sink.i, i64 noundef %17) #26
  br label %_ZL20stringToStringBufferPciPKcP10UErrorCode.exit

_ZL20stringToStringBufferPciPKcP10UErrorCode.exit: ; preds = %8, %12, %.sink.split.i
  %.018.i = phi i32 [ %11, %8 ], [ %15, %12 ], [ %.sink25.i, %.sink.split.i ]
  %19 = tail call noundef i32 @u_terminateChars_77(ptr noundef %1, i32 noundef %2, i32 noundef %.018.i, ptr noundef nonnull %3)
  ret i32 %19
}